; Function Attrs: mustprogress uwtable
define void @_ZN11ImageViewer10closeEventEP11QCloseEvent(ptr noundef nonnull readonly align 8 captures(none) dereferenceable(160) %0, ptr noundef writeonly captures(none) initializes((12, 13)) %1) unnamed_addr #0 align 2 personality ptr @__gxx_personality_v0 {
  %3 = getelementptr inbounds nuw i8, ptr %0, i64 40
  %4 = load ptr, ptr %3, align 8, !tbaa !90
  %5 = getelementptr inbounds nuw i8, ptr %4, i64 104
  %6 = load ptr, ptr %5, align 8, !tbaa !91
  store ptr null, ptr %5, align 8, !tbaa !91
  %.not.i.i.i = icmp eq ptr %6, null
  br i1 %.not.i.i.i, label %_ZNSt10unique_ptrI11ImageViewerSt14default_deleteIS0_EEaSEDn.exit, label %_ZNKSt14default_deleteI11ImageViewerEclEPS0_.exit.i.i.i

_ZNKSt14default_deleteI11ImageViewerEclEPS0_.exit.i.i.i: ; preds = %2
  %7 = load ptr, ptr %6, align 8, !tbaa !3
  %8 = getelementptr inbounds nuw i8, ptr %7, i64 32
  %9 = load ptr, ptr %8, align 8
  tail call void %9(ptr noundef nonnull align 8 dereferenceable(160) %6) #9
  br label %_ZNSt10unique_ptrI11ImageViewerSt14default_deleteIS0_EEaSEDn.exit

_ZNSt10unique_ptrI11ImageViewerSt14default_deleteIS0_EEaSEDn.exit: ; preds = %2, %_ZNKSt14default_deleteI11ImageViewerEclEPS0_.exit.i.i.i
  %10 = getelementptr inbounds nuw i8, ptr %1, i64 12
  store i8 1, ptr %10, align 4, !tbaa !93
  ret void
}